target datalayout = "e-m:e-p270:32:32-p271:32:32-p272:64:64-i64:64-i128:128-f80:128-n8:16:32:64-S128"
target triple = "x86_64-pc-linux-gnu"

; Function Attrs: nounwind uwtable
define i32 @ff_hevc_annexb2mp4_buf(ptr noundef %0, ptr noundef %1, ptr noundef %2, i32 noundef %3, ptr noundef %4) #0 {
  %6 = alloca i32, align 4
  %7 = alloca ptr, align 8
  %8 = alloca ptr, align 8
  %9 = alloca ptr, align 8
  %10 = alloca i32, align 4
  %11 = alloca ptr, align 8
  %12 = alloca ptr, align 8
  %13 = alloca i32, align 4
  %14 = alloca i32, align 4
  store ptr %0, ptr %7, align 8, !tbaa !9
  store ptr %1, ptr %8, align 8, !tbaa !18
  store ptr %2, ptr %9, align 8, !tbaa !13
  store i32 %3, ptr %10, align 4, !tbaa !11
  store ptr %4, ptr %11, align 8, !tbaa !13
  call void @llvm.lifetime.start.p0(i64 8, ptr %12) #7
  call void @llvm.lifetime.start.p0(i64 4, ptr %13) #7
  %15 = call i32 @avio_open_dyn_buf(ptr noundef %12)
  store i32 %15, ptr %13, align 4, !tbaa !11
  %16 = load i32, ptr %13, align 4, !tbaa !11
  %17 = icmp slt i32 %16, 0
  br i1 %17, label %18, label %20

18:                                               ; preds = %5
  %19 = load i32, ptr %13, align 4, !tbaa !11
  store i32 %19, ptr %6, align 4
  store i32 1, ptr %14, align 4
  br label %37

20:                                               ; preds = %5
  %21 = load ptr, ptr %12, align 8, !tbaa !4
  %22 = load ptr, ptr %7, align 8, !tbaa !9
  %23 = load ptr, ptr %9, align 8, !tbaa !13
  %24 = load i32, ptr %23, align 4, !tbaa !11
  %25 = load i32, ptr %10, align 4, !tbaa !11
  %26 = load ptr, ptr %11, align 8, !tbaa !13
  %27 = call i32 @ff_hevc_annexb2mp4(ptr noundef %21, ptr noundef %22, i32 noundef %24, i32 noundef %25, ptr noundef %26)
  store i32 %27, ptr %13, align 4, !tbaa !11
  %28 = load i32, ptr %13, align 4, !tbaa !11
  %29 = icmp slt i32 %28, 0
  br i1 %29, label %30, label %32

30:                                               ; preds = %20
  call void @ffio_free_dyn_buf(ptr noundef %12)
  %31 = load i32, ptr %13, align 4, !tbaa !11
  store i32 %31, ptr %6, align 4
  store i32 1, ptr %14, align 4
  br label %37

32:                                               ; preds = %20
  %33 = load ptr, ptr %12, align 8, !tbaa !4
  %34 = load ptr, ptr %8, align 8, !tbaa !18
  %35 = call i32 @avio_close_dyn_buf(ptr noundef %33, ptr noundef %34)
  %36 = load ptr, ptr %9, align 8, !tbaa !13
  store i32 %35, ptr %36, align 4, !tbaa !11
  store i32 0, ptr %6, align 4
  store i32 1, ptr %14, align 4
  br label %37

37:                                               ; preds = %32, %30, %18
  call void @llvm.lifetime.end.p0(i64 4, ptr %13) #7
  call void @llvm.lifetime.end.p0(i64 8, ptr %12) #7
  %38 = load i32, ptr %6, align 4
  ret i32 %38
}